target datalayout = "e-m:e-p270:32:32-p271:32:32-p272:64:64-i64:64-i128:128-f80:128-n8:16:32:64-S128"
target triple = "x86_64-pc-linux-gnu"

%struct.b2ChainShapeArray = type { ptr, i32, i32 }

; Function Attrs: nounwind uwtable
define hidden { ptr, i64 } @b2ChainShapeArray_Create(i32 noundef %0) #0 {
  %2 = alloca %struct.b2ChainShapeArray, align 8
  %3 = alloca i32, align 4
  store i32 %0, ptr %3, align 4, !tbaa !3
  call void @llvm.memset.p0.i64(ptr align 8 %2, i8 0, i64 16, i1 false)
  %4 = load i32, ptr %3, align 4, !tbaa !3
  %5 = icmp sgt i32 %4, 0
  br i1 %5, label %6, label %15

6:                                                ; preds = %1
  %7 = load i32, ptr %3, align 4, !tbaa !3
  %8 = sext i32 %7 to i64
  %9 = mul i64 %8, 48
  %10 = trunc i64 %9 to i32
  %11 = call ptr @b2Alloc(i32 noundef %10)
  %12 = getelementptr inbounds nuw %struct.b2ChainShapeArray, ptr %2, i32 0, i32 0
  store ptr %11, ptr %12, align 8, !tbaa !7
  %13 = load i32, ptr %3, align 4, !tbaa !3
  %14 = getelementptr inbounds nuw %struct.b2ChainShapeArray, ptr %2, i32 0, i32 2
  store i32 %13, ptr %14, align 4, !tbaa !11
  br label %15

15:                                               ; preds = %6, %1
  %16 = load { ptr, i64 }, ptr %2, align 8
  ret { ptr, i64 } %16
}